(lp0
(V2014-07-13T11:27:10Z
p1
VCreateEvent
p2
tp3
a(V2014-07-13T11:27:10Z
p4
VReleaseEvent
p5
tp6
a(V2014-07-13T11:23:47Z
p7
VPushEvent
p8
tp9
a(V2014-07-13T11:06:09Z
p10
VPushEvent
p11
tp12
a(V2014-07-13T10:48:23Z
p13
VCreateEvent
p14
tp15
a(V2014-07-13T10:48:22Z
p16
VReleaseEvent
p17
tp18
a(V2014-07-13T10:45:21Z
p19
VPushEvent
p20
tp21
a(V2014-07-13T10:40:41Z
p22
VPushEvent
p23
tp24
a(V2014-07-13T10:16:04Z
p25
VPushEvent
p26
tp27
a(V2014-07-13T10:07:53Z
p28
VPushEvent
p29
tp30
a(V2014-07-13T10:01:49Z
p31
VPushEvent
p32
tp33
a(V2014-07-13T09:55:33Z
p34
VPushEvent
p35
tp36
a(V2014-07-13T09:52:05Z
p37
VPushEvent
p38
tp39
a(V2014-07-13T09:46:40Z
p40
VPushEvent
p41
tp42
a(V2014-07-13T09:42:52Z
p43
VPushEvent
p44
tp45
a(V2014-07-13T09:19:03Z
p46
VPushEvent
p47
tp48
a(V2014-07-12T18:35:23Z
p49
VPushEvent
p50
tp51
a(V2014-07-12T09:18:31Z
p52
VPushEvent
p53
tp54
a(V2014-07-12T08:17:07Z
p55
VPushEvent
p56
tp57
a(V2014-07-09T17:08:42Z
p58
VPushEvent
p59
tp60
a(V2014-07-09T17:02:31Z
p61
VCreateEvent
p62
tp63
a(V2014-07-09T15:15:40Z
p64
VCreateEvent
p65
tp66
a(V2014-07-09T15:14:26Z
p67
VCreateEvent
p68
tp69
a(V2014-07-09T09:44:12Z
p70
VCreateEvent
p71
tp72
a(V2014-07-09T09:44:12Z
p73
VReleaseEvent
p74
tp75
a(V2014-07-09T09:41:23Z
p76
VPushEvent
p77
tp78
a(V2014-07-09T09:00:20Z
p79
VCreateEvent
p80
tp81
a(V2014-07-09T09:00:20Z
p82
VReleaseEvent
p83
tp84
a(V2014-07-09T08:58:42Z
p85
VPushEvent
p86
tp87
a(V2014-07-02T16:10:37Z
p88
VPushEvent
p89
tp90
a(V2014-07-01T17:35:46Z
p91
VCreateEvent
p92
tp93
a(V2014-06-29T14:39:52Z
p94
VCreateEvent
p95
tp96
a(V2014-06-29T14:39:52Z
p97
VReleaseEvent
p98
tp99
a(V2014-06-29T14:38:47Z
p100
VPushEvent
p101
tp102
a(V2014-06-29T13:31:24Z
p103
VPushEvent
p104
tp105
a(V2014-06-28T17:22:53Z
p106
VCreateEvent
p107
tp108
a(V2014-06-28T17:22:53Z
p109
VReleaseEvent
p110
tp111
a(V2014-06-28T17:21:14Z
p112
VPushEvent
p113
tp114
a(V2014-06-28T16:38:16Z
p115
VCreateEvent
p116
tp117
a(V2014-06-28T16:38:16Z
p118
VReleaseEvent
p119
tp120
a(V2014-06-28T16:35:44Z
p121
VCreateEvent
p122
tp123
a(V2014-06-28T16:35:44Z
p124
VReleaseEvent
p125
tp126
a(V2014-06-28T16:35:24Z
p127
VPushEvent
p128
tp129
a(V2014-06-28T16:34:25Z
p130
VPushEvent
p131
tp132
a(V2014-06-28T14:42:37Z
p133
VCreateEvent
p134
tp135
a(V2014-06-28T14:42:37Z
p136
VReleaseEvent
p137
tp138
a(V2014-06-28T14:40:32Z
p139
VPushEvent
p140
tp141
a(V2014-06-28T14:20:27Z
p142
VCreateEvent
p143
tp144
a(V2014-06-28T14:20:27Z
p145
VReleaseEvent
p146
tp147
a(V2014-06-28T14:19:18Z
p148
VPushEvent
p149
tp150
a(V2014-06-28T14:11:27Z
p151
VCreateEvent
p152
tp153
a(V2014-06-28T14:11:27Z
p154
VReleaseEvent
p155
tp156
a(V2014-06-28T14:09:48Z
p157
VPushEvent
p158
tp159
a(V2014-06-28T14:04:52Z
p160
VPushEvent
p161
tp162
a(V2014-06-28T13:57:25Z
p163
VCreateEvent
p164
tp165
a(V2014-06-28T13:57:25Z
p166
VReleaseEvent
p167
tp168
a(V2014-06-28T13:56:04Z
p169
VPushEvent
p170
tp171
a(V2014-06-28T13:46:58Z
p172
VCreateEvent
p173
tp174
a(V2014-06-28T13:46:58Z
p175
VReleaseEvent
p176
tp177
a(V2014-06-28T13:44:48Z
p178
VPushEvent
p179
tp180
a(V2014-06-28T13:43:05Z
p181
VPushEvent
p182
tp183
a(V2014-06-28T11:25:50Z
p184
VCreateEvent
p185
tp186
a(V2014-06-28T11:25:50Z
p187
VReleaseEvent
p188
tp189
a(V2014-06-28T11:24:16Z
p190
VPushEvent
p191
tp192
a(V2014-06-28T10:28:06Z
p193
VPushEvent
p194
tp195
a(V2014-06-28T07:19:54Z
p196
VPushEvent
p197
tp198
a(V2014-06-28T07:17:39Z
p199
VPushEvent
p200
tp201
a(V2014-06-28T06:59:10Z
p202
VCreateEvent
p203
tp204
a(V2014-06-28T06:59:10Z
p205
VReleaseEvent
p206
tp207
a(V2014-06-28T06:57:24Z
p208
VPushEvent
p209
tp210
a(V2014-06-27T22:53:24Z
p211
VCreateEvent
p212
tp213
a(V2014-06-27T22:53:24Z
p214
VReleaseEvent
p215
tp216
a(V2014-06-27T22:49:57Z
p217
VPushEvent
p218
tp219
a(V2014-06-27T22:47:18Z
p220
VCreateEvent
p221
tp222
a(V2014-06-27T22:47:18Z
p223
VReleaseEvent
p224
tp225
a(V2014-06-27T22:45:38Z
p226
VPushEvent
p227
tp228
a(V2014-06-27T22:38:58Z
p229
VCreateEvent
p230
tp231
a(V2014-06-27T22:38:58Z
p232
VReleaseEvent
p233
tp234
a(V2014-06-27T22:37:03Z
p235
VPushEvent
p236
tp237
a(V2014-06-27T22:33:19Z
p238
VPushEvent
p239
tp240
a(V2014-06-27T19:44:06Z
p241
VPushEvent
p242
tp243
a(V2014-06-27T19:43:00Z
p244
VPushEvent
p245
tp246
a(V2014-06-27T11:09:39Z
p247
VPushEvent
p248
tp249
a(V2014-06-27T10:58:14Z
p250
VPushEvent
p251
tp252
a(V2014-06-27T10:08:35Z
p253
VPushEvent
p254
tp255
a(V2014-06-27T10:01:05Z
p256
VPushEvent
p257
tp258
a(V2014-06-27T07:36:56Z
p259
VPushEvent
p260
tp261
a(V2014-06-27T07:33:18Z
p262
VPushEvent
p263
tp264
a(V2014-06-27T07:30:23Z
p265
VPushEvent
p266
tp267
a(V2014-06-26T15:53:48Z
p268
VPushEvent
p269
tp270
a(V2014-06-26T15:16:09Z
p271
VPushEvent
p272
tp273
a(V2014-06-26T13:44:56Z
p274
VPushEvent
p275
tp276
a(V2014-06-26T06:01:06Z
p277
VPushEvent
p278
tp279
a(V2014-06-26T05:10:12Z
p280
VPushEvent
p281
tp282
a(V2014-06-25T20:45:36Z
p283
VPushEvent
p284
tp285
a(V2014-06-25T16:46:35Z
p286
VPushEvent
p287
tp288
a(V2014-06-25T16:43:55Z
p289
VPushEvent
p290
tp291
a(V2014-06-25T16:37:11Z
p292
VPushEvent
p293
tp294
a(V2014-06-25T16:19:53Z
p295
VPushEvent
p296
tp297
a(V2014-06-25T16:09:09Z
p298
VPushEvent
p299
tp300
a(V2014-06-25T15:44:34Z
p301
VPushEvent
p302
tp303
a(V2014-06-25T15:42:16Z
p304
VPushEvent
p305
tp306
a(V2014-06-25T15:31:27Z
p307
VPushEvent
p308
tp309
a(V2014-06-24T17:51:06Z
p310
VPushEvent
p311
tp312
a(V2014-06-24T17:13:37Z
p313
VCreateEvent
p314
tp315
a(V2014-06-24T11:33:42Z
p316
VDeleteEvent
p317
tp318
a(V2014-06-24T11:31:57Z
p319
VCreateEvent
p320
tp321
a(V2014-06-23T17:46:12Z
p322
VCreateEvent
p323
tp324
a(V2014-06-23T16:58:54Z
p325
VCreateEvent
p326
tp327
a(V2014-06-23T16:58:54Z
p328
VReleaseEvent
p329
tp330
a(V2014-06-23T16:50:49Z
p331
VPushEvent
p332
tp333
a(V2014-06-23T16:19:48Z
p334
VCreateEvent
p335
tp336
a(V2014-06-23T16:19:47Z
p337
VReleaseEvent
p338
tp339
a(V2014-06-23T16:12:26Z
p340
VPushEvent
p341
tp342
a(V2014-06-23T16:06:26Z
p343
VCreateEvent
p344
tp345
a(V2014-06-23T16:06:25Z
p346
VReleaseEvent
p347
tp348
a(V2014-06-23T15:57:53Z
p349
VPushEvent
p350
tp351
a(V2014-06-22T20:05:03Z
p352
VCreateEvent
p353
tp354
a(V2014-06-22T20:05:03Z
p355
VReleaseEvent
p356
tp357
a(V2014-06-22T20:03:40Z
p358
VPushEvent
p359
tp360
a(V2014-06-22T19:54:53Z
p361
VCreateEvent
p362
tp363
a(V2014-06-22T19:54:53Z
p364
VReleaseEvent
p365
tp366
a(V2014-06-22T19:53:43Z
p367
VPushEvent
p368
tp369
a(V2014-06-22T19:46:29Z
p370
VDeleteEvent
p371
tp372
a(V2014-06-22T19:46:26Z
p373
VCreateEvent
p374
tp375
a(V2014-06-22T19:46:26Z
p376
VReleaseEvent
p377
tp378
a(V2014-06-22T19:45:05Z
p379
VPushEvent
p380
tp381
a(V2014-06-22T19:44:49Z
p382
VCreateEvent
p383
tp384
a(V2014-06-22T19:44:49Z
p385
VReleaseEvent
p386
tp387
a(V2014-06-22T19:43:24Z
p388
VPushEvent
p389
tp390
a(V2014-06-22T19:13:49Z
p391
VCreateEvent
p392
tp393
a(V2014-06-22T19:13:48Z
p394
VReleaseEvent
p395
tp396
a(V2014-06-22T19:12:33Z
p397
VPushEvent
p398
tp399
a(V2014-06-22T19:05:04Z
p400
VPushEvent
p401
tp402
a(V2014-06-22T19:02:10Z
p403
VCreateEvent
p404
tp405
a(V2014-06-22T19:02:10Z
p406
VReleaseEvent
p407
tp408
a(V2014-06-22T19:00:47Z
p409
VPushEvent
p410
tp411
a(V2014-06-22T18:59:39Z
p412
VPushEvent
p413
tp414
a(V2014-06-22T18:44:38Z
p415
VPushEvent
p416
tp417
a(V2014-06-22T18:40:29Z
p418
VPushEvent
p419
tp420
a(V2014-06-22T12:34:44Z
p421
VPushEvent
p422
tp423
a(V2014-06-22T12:29:41Z
p424
VPushEvent
p425
tp426
a(V2014-06-22T12:29:02Z
p427
VCreateEvent
p428
tp429
a(V2014-06-22T12:06:54Z
p430
VCreateEvent
p431
tp432
a(V2014-06-22T12:06:53Z
p433
VReleaseEvent
p434
tp435
a(V2014-06-22T12:05:39Z
p436
VPushEvent
p437
tp438
a(V2014-06-22T12:03:09Z
p439
VPushEvent
p440
tp441
a(V2014-06-22T12:00:40Z
p442
VCreateEvent
p443
tp444
a(V2014-06-22T12:00:40Z
p445
VReleaseEvent
p446
tp447
a(V2014-06-22T11:59:33Z
p448
VPushEvent
p449
tp450
a(V2014-06-22T11:56:18Z
p451
VPushEvent
p452
tp453
a(V2014-06-22T11:54:40Z
p454
VPushEvent
p455
tp456
a(V2014-06-22T11:47:20Z
p457
VCreateEvent
p458
tp459
a(V2014-06-22T11:47:20Z
p460
VReleaseEvent
p461
tp462
a(V2014-06-22T11:45:21Z
p463
VPushEvent
p464
tp465
a(V2014-06-22T11:43:04Z
p466
VCreateEvent
p467
tp468
a(V2014-06-22T11:43:04Z
p469
VReleaseEvent
p470
tp471
a(V2014-06-22T11:41:52Z
p472
VPushEvent
p473
tp474
a(V2014-06-22T11:40:03Z
p475
VCreateEvent
p476
tp477
a(V2014-06-22T11:40:03Z
p478
VReleaseEvent
p479
tp480
a(V2014-06-22T11:39:05Z
p481
VPushEvent
p482
tp483
a(V2014-06-22T11:34:18Z
p484
VCreateEvent
p485
tp486
a(V2014-06-22T11:34:18Z
p487
VReleaseEvent
p488
tp489
a(V2014-06-22T11:32:39Z
p490
VPushEvent
p491
tp492
a(V2014-06-22T11:29:09Z
p493
VPushEvent
p494
tp495
a(V2014-06-22T11:27:40Z
p496
VCreateEvent
p497
tp498
a(V2014-06-22T11:27:40Z
p499
VReleaseEvent
p500
tp501
a(V2014-06-22T11:26:34Z
p502
VPushEvent
p503
tp504
a(V2014-06-22T11:16:25Z
p505
VCreateEvent
p506
tp507
a(V2014-06-22T11:16:25Z
p508
VReleaseEvent
p509
tp510
a(V2014-06-22T11:15:24Z
p511
VPushEvent
p512
tp513
a(V2014-06-22T11:14:32Z
p514
VCreateEvent
p515
tp516
a(V2014-06-22T11:14:32Z
p517
VReleaseEvent
p518
tp519
a(V2014-06-22T11:13:25Z
p520
VPushEvent
p521
tp522
a(V2014-06-22T10:16:48Z
p523
VCreateEvent
p524
tp525
a(V2014-06-22T10:16:26Z
p526
VPushEvent
p527
tp528
a(V2014-06-22T10:07:17Z
p529
VDeleteEvent
p530
tp531
a(V2014-06-22T10:05:34Z
p532
VCreateEvent
p533
tp534
a(V2014-06-22T10:05:34Z
p535
VReleaseEvent
p536
tp537
a(V2014-06-22T10:04:58Z
p538
VDeleteEvent
p539
tp540
a(V2014-06-22T10:04:24Z
p541
VPushEvent
p542
tp543
a(V2014-06-22T09:59:33Z
p544
VCreateEvent
p545
tp546
a(V2014-06-22T09:59:32Z
p547
VReleaseEvent
p548
tp549
a(V2014-06-22T09:44:01Z
p550
VPushEvent
p551
tp552
a(V2014-06-22T09:39:37Z
p553
VDeleteEvent
p554
tp555
a(V2014-06-22T09:39:32Z
p556
VDeleteEvent
p557
tp558
a(V2014-06-22T09:39:25Z
p559
VDeleteEvent
p560
tp561
a(V2014-06-22T09:39:22Z
p562
VDeleteEvent
p563
tp564
a(V2014-06-22T09:39:17Z
p565
VDeleteEvent
p566
tp567
a(V2014-06-22T09:36:23Z
p568
VCreateEvent
p569
tp570
a(V2014-06-22T09:36:23Z
p571
VReleaseEvent
p572
tp573
a(V2014-06-22T09:34:42Z
p574
VPushEvent
p575
tp576
a(V2014-06-22T09:29:37Z
p577
VPushEvent
p578
tp579
a(V2014-06-22T09:18:15Z
p580
VCreateEvent
p581
tp582
a(V2014-06-22T09:18:15Z
p583
VReleaseEvent
p584
tp585
a(V2014-06-22T08:04:25Z
p586
VPushEvent
p587
tp588
a(V2014-06-22T08:01:24Z
p589
VPushEvent
p590
tp591
a(V2014-06-21T22:23:51Z
p592
VCreateEvent
p593
tp594
a(V2014-06-21T22:23:50Z
p595
VReleaseEvent
p596
tp597
a(V2014-06-21T14:50:28Z
p598
VPushEvent
p599
tp600
a(V2014-06-21T14:41:11Z
p601
VPushEvent
p602
tp603
a(V2014-06-21T14:30:35Z
p604
VWatchEvent
p605
tp606
a(V2014-06-21T10:58:14Z
p607
VReleaseEvent
p608
tp609
a(V2014-06-21T10:56:40Z
p610
VPushEvent
p611
tp612
a(V2014-06-21T10:56:40Z
p613
VCreateEvent
p614
tp615
a(V2014-06-21T10:45:19Z
p616
VReleaseEvent
p617
tp618
a(V2014-06-21T10:43:33Z
p619
VPushEvent
p620
tp621
a(V2014-06-21T10:43:33Z
p622
VCreateEvent
p623
tp624
a(V2014-06-21T10:31:30Z
p625
VReleaseEvent
p626
tp627
a(V2014-06-21T10:29:54Z
p628
VPushEvent
p629
tp630
a(V2014-06-21T10:29:53Z
p631
VCreateEvent
p632
tp633
a(V2014-06-21T10:11:26Z
p634
VPushEvent
p635
tp636
a(V2014-06-21T10:06:49Z
p637
VCreateEvent
p638
tp639
a(V2014-06-20T16:26:11Z
p640
VPushEvent
p641
tp642
a(V2014-06-20T12:24:04Z
p643
VWatchEvent
p644
tp645
a(V2014-06-20T05:15:27Z
p646
VPushEvent
p647
tp648
a(V2014-06-20T05:11:02Z
p649
VPushEvent
p650
tp651
a(V2014-06-20T05:04:58Z
p652
VPushEvent
p653
tp654
a(V2014-06-20T05:01:11Z
p655
VCreateEvent
p656
tp657
a(V2014-06-19T11:36:07Z
p658
VPushEvent
p659
tp660
a(V2014-06-19T10:35:51Z
p661
VPushEvent
p662
tp663
a(V2014-06-18T10:39:05Z
p664
VWatchEvent
p665
tp666
a(V2014-06-18T06:25:56Z
p667
VWatchEvent
p668
tp669
a(V2014-06-18T06:13:06Z
p670
VPushEvent
p671
tp672
a(V2014-06-16T13:22:03Z
p673
VPushEvent
p674
tp675
a(V2014-06-16T13:21:15Z
p676
VPushEvent
p677
tp678
a(V2014-06-16T13:12:25Z
p679
VPushEvent
p680
tp681
a(V2014-06-16T12:34:58Z
p682
VPushEvent
p683
tp684
a(V2014-06-16T11:31:24Z
p685
VPushEvent
p686
tp687
a(V2014-06-16T06:45:15Z
p688
VPushEvent
p689
tp690
a(V2014-06-16T06:14:34Z
p691
VPushEvent
p692
tp693
a(V2014-06-16T05:56:30Z
p694
VPushEvent
p695
tp696
a(V2014-06-15T21:09:14Z
p697
VPushEvent
p698
tp699
a(V2014-06-15T20:41:40Z
p700
VWatchEvent
p701
tp702
a(V2014-06-15T20:39:45Z
p703
VPushEvent
p704
tp705
a(V2014-06-15T20:35:54Z
p706
VPushEvent
p707
tp708
a(V2014-06-15T20:25:23Z
p709
VPushEvent
p710
tp711
a(V2014-06-15T20:15:26Z
p712
VPushEvent
p713
tp714
a(V2014-06-15T20:09:13Z
p715
VPushEvent
p716
tp717
a(V2014-06-15T16:29:07Z
p718
VPushEvent
p719
tp720
a(V2014-06-15T07:04:24Z
p721
VPushEvent
p722
tp723
a(V2014-06-14T22:06:14Z
p724
VPushEvent
p725
tp726
a(V2014-06-14T21:41:07Z
p727
VPushEvent
p728
tp729
a(V2014-06-14T21:38:42Z
p730
VPushEvent
p731
tp732
a(V2014-06-14T20:33:11Z
p733
VPushEvent
p734
tp735
a(V2014-06-14T20:15:47Z
p736
VPushEvent
p737
tp738
a(V2014-06-14T17:35:36Z
p739
VPushEvent
p740
tp741
a(V2014-06-14T17:23:05Z
p742
VPushEvent
p743
tp744
a(V2014-06-14T17:13:22Z
p745
VPushEvent
p746
tp747
a(V2014-06-14T17:11:03Z
p748
VPushEvent
p749
tp750
a(V2014-06-13T11:52:22Z
p751
VPushEvent
p752
tp753
a(V2014-06-13T11:38:55Z
p754
VPushEvent
p755
tp756
a(V2014-06-13T11:11:16Z
p757
VPushEvent
p758
tp759
a(V2014-06-13T10:56:13Z
p760
VPushEvent
p761
tp762
a(V2014-06-13T09:23:04Z
p763
VPushEvent
p764
tp765
a(V2014-06-13T09:20:13Z
p766
VPushEvent
p767
tp768
a(V2014-06-13T09:12:14Z
p769
VPushEvent
p770
tp771
a(V2014-06-13T07:21:12Z
p772
VMemberEvent
p773
tp774
a(V2014-06-13T07:16:17Z
p775
VCreateEvent
p776
tp777
a(V2014-06-13T07:13:04Z
p778
VCreateEvent
p779
tp780
a(V2014-06-12T08:09:13Z
p781
VPushEvent
p782
tp783
a(V2014-06-12T08:06:59Z
p784
VPushEvent
p785
tp786
a(V2014-06-09T19:24:06Z
p787
VPushEvent
p788
tp789
a(V2014-06-09T19:22:40Z
p790
VCreateEvent
p791
tp792
a(V2014-06-09T19:17:43Z
p793
VCreateEvent
p794
tp795
a(V2014-06-05T10:39:41Z
p796
VWatchEvent
p797
tp798
a(V2014-05-19T07:11:39Z
p799
VPushEvent
p800
tp801
a(V2014-05-19T07:10:40Z
p802
VPushEvent
p803
tp804
a(V2014-05-14T20:17:08Z
p805
VWatchEvent
p806
tp807
a(V2014-04-06T13:35:08Z
p808
VPushEvent
p809
tp810
a(V2014-04-06T13:34:56Z
p811
VPushEvent
p812
tp813
a(V2014-03-23T16:07:47Z
p814
VPushEvent
p815
tp816
a(V2014-03-17T12:47:02Z
p817
VPushEvent
p818
tp819
a(V2014-03-17T12:25:52Z
p820
VPushEvent
p821
tp822
a(V2014-01-09T10:38:14Z
p823
VPushEvent
p824
tp825
a(V2014-01-09T10:37:59Z
p826
VPushEvent
p827
tp828
a(V2014-01-09T10:29:14Z
p829
VPushEvent
p830
tp831
a(V2014-01-09T09:50:15Z
p832
VPushEvent
p833
tp834
a(V2014-01-09T08:25:49Z
p835
VPushEvent
p836
tp837
a(V2014-01-02T10:02:08Z
p838
VPushEvent
p839
tp840
a(V2013-12-18T07:30:55Z
p841
VWatchEvent
p842
tp843
a(V2013-12-04T19:43:50Z
p844
VWatchEvent
p845
tp846
a(V2013-12-04T17:53:36Z
p847
VWatchEvent
p848
tp849
a(V2013-11-28T10:36:37Z
p850
VPushEvent
p851
tp852
a(V2013-11-25T18:22:15Z
p853
VPushEvent
p854
tp855
a(V2013-11-25T18:19:15Z
p856
VPushEvent
p857
tp858
a(V2013-11-13T21:05:53Z
p859
VPushEvent
p860
tp861
a(V2013-11-13T21:01:42Z
p862
VCreateEvent
p863
tp864
a(V2013-11-13T21:01:42Z
p865
VReleaseEvent
p866
tp867
a(V2013-11-13T20:40:35Z
p868
VPushEvent
p869
tp870
a(V2013-11-13T20:19:55Z
p871
VPushEvent
p872
tp873
a(V2013-11-13T20:18:53Z
p874
VPushEvent
p875
tp876
a(V2013-11-13T20:12:56Z
p877
VPushEvent
p878
tp879
a(V2013-11-13T20:09:28Z
p880
VCreateEvent
p881
tp882
a(V2013-11-13T20:08:50Z
p883
VCreateEvent
p884
tp885
a(V2013-11-08T11:21:32Z
p886
VPushEvent
p887
tp888
a(V2013-11-08T11:20:08Z
p889
VPushEvent
p890
tp891
a(V2013-11-08T11:05:34Z
p892
VPushEvent
p893
tp894
a(V2013-10-30T17:52:38Z
p895
VPushEvent
p896
tp897
a(V2013-10-30T17:45:33Z
p898
VPushEvent
p899
tp900
a.