(lp0
(V2014-07-13T04:43:19Z
p1
VPushEvent
p2
tp3
a(V2014-07-13T04:26:00Z
p4
VCreateEvent
p5
tp6
a(V2014-07-12T22:43:52Z
p7
VIssueCommentEvent
p8
tp9
a(V2014-07-12T22:42:47Z
p10
VIssueCommentEvent
p11
tp12
a(V2014-07-12T16:16:00Z
p13
VPullRequestEvent
p14
tp15
a(V2014-07-12T16:16:00Z
p16
VIssueCommentEvent
p17
tp18
a(V2014-07-12T06:09:34Z
p19
VDeleteEvent
p20
tp21
a(V2014-07-12T06:07:45Z
p22
VPushEvent
p23
tp24
a(V2014-07-12T06:06:26Z
p25
VReleaseEvent
p26
tp27
a(V2014-07-12T06:02:24Z
p28
VPushEvent
p29
tp30
a(V2014-07-12T06:02:24Z
p31
VIssuesEvent
p32
tp33
a(V2014-07-12T06:02:23Z
p34
VPullRequestEvent
p35
tp36
a(V2014-07-12T06:02:23Z
p37
VPullRequestEvent
p38
tp39
a(V2014-07-12T06:02:16Z
p40
VCreateEvent
p41
tp42
a(V2014-07-12T05:56:30Z
p43
VPushEvent
p44
tp45
a(V2014-07-12T05:42:28Z
p46
VPullRequestEvent
p47
tp48
a(V2014-07-12T05:42:28Z
p49
VIssueCommentEvent
p50
tp51
a(V2014-07-12T05:37:47Z
p52
VIssueCommentEvent
p53
tp54
a(V2014-07-12T04:53:11Z
p55
VPullRequestEvent
p56
tp57
a(V2014-07-12T04:53:11Z
p58
VIssueCommentEvent
p59
tp60
a(V2014-07-12T04:48:55Z
p61
VPushEvent
p62
tp63
a(V2014-07-12T04:48:54Z
p64
VIssueCommentEvent
p65
tp66
a(V2014-07-12T04:48:41Z
p67
VPullRequestEvent
p68
tp69
a(V2014-07-12T04:48:16Z
p70
VPullRequestEvent
p71
tp72
a(V2014-07-12T04:48:16Z
p73
VIssueCommentEvent
p74
tp75
a(V2014-07-12T04:36:32Z
p76
VIssueCommentEvent
p77
tp78
a(V2014-07-12T01:29:33Z
p79
VPushEvent
p80
tp81
a(V2014-07-12T01:28:41Z
p82
VPushEvent
p83
tp84
a(V2014-07-12T01:28:16Z
p85
VPushEvent
p86
tp87
a(V2014-07-12T00:47:28Z
p88
VPushEvent
p89
tp90
a(V2014-07-11T20:02:23Z
p91
VCreateEvent
p92
tp93
a(V2014-07-11T18:39:39Z
p94
VPushEvent
p95
tp96
a(V2014-07-11T18:34:03Z
p97
VGollumEvent
p98
tp99
a(V2014-07-11T18:33:52Z
p100
VGollumEvent
p101
tp102
a(V2014-07-11T18:33:41Z
p103
VGollumEvent
p104
tp105
a(V2014-07-11T18:32:30Z
p106
VGollumEvent
p107
tp108
a(V2014-07-11T18:31:22Z
p109
VPushEvent
p110
tp111
a(V2014-07-11T18:09:27Z
p112
VGollumEvent
p113
tp114
a(V2014-07-11T18:09:17Z
p115
VGollumEvent
p116
tp117
a(V2014-07-11T18:08:42Z
p118
VGollumEvent
p119
tp120
a(V2014-07-11T18:06:02Z
p121
VGollumEvent
p122
tp123
a(V2014-07-11T15:58:06Z
p124
VIssueCommentEvent
p125
tp126
a(V2014-07-10T23:51:31Z
p127
VCreateEvent
p128
tp129
a(V2014-07-10T23:51:30Z
p130
VPushEvent
p131
tp132
a(V2014-07-10T22:19:06Z
p133
VGollumEvent
p134
tp135
a(V2014-07-10T22:13:39Z
p136
VGollumEvent
p137
tp138
a(V2014-07-10T22:13:07Z
p139
VGollumEvent
p140
tp141
a(V2014-07-10T22:08:03Z
p142
VGollumEvent
p143
tp144
a(V2014-07-10T22:07:34Z
p145
VGollumEvent
p146
tp147
a(V2014-07-10T22:06:54Z
p148
VGollumEvent
p149
tp150
a(V2014-07-10T22:05:45Z
p151
VGollumEvent
p152
tp153
a(V2014-07-10T22:05:07Z
p154
VGollumEvent
p155
tp156
a(V2014-07-10T22:04:39Z
p157
VGollumEvent
p158
tp159
a(V2014-07-10T22:04:13Z
p160
VGollumEvent
p161
tp162
a(V2014-07-10T22:02:49Z
p163
VGollumEvent
p164
tp165
a(V2014-07-10T21:55:16Z
p166
VPushEvent
p167
tp168
a(V2014-07-10T21:55:16Z
p169
VIssuesEvent
p170
tp171
a(V2014-07-10T21:53:44Z
p172
VIssueCommentEvent
p173
tp174
a(V2014-07-10T17:06:09Z
p175
VCreateEvent
p176
tp177
a(V2014-07-10T17:06:03Z
p178
VCreateEvent
p179
tp180
a(V2014-07-10T17:05:54Z
p181
VCreateEvent
p182
tp183
a(V2014-07-10T15:58:24Z
p184
VPushEvent
p185
tp186
a(V2014-07-10T15:43:23Z
p187
VPushEvent
p188
tp189
a(V2014-07-09T22:44:20Z
p190
VPushEvent
p191
tp192
a(V2014-07-09T22:30:22Z
p193
VPushEvent
p194
tp195
a(V2014-07-09T22:26:28Z
p196
VPushEvent
p197
tp198
a(V2014-07-09T20:40:49Z
p199
VGollumEvent
p200
tp201
a(V2014-07-09T20:40:33Z
p202
VPushEvent
p203
tp204
a(V2014-07-09T20:38:03Z
p205
VGollumEvent
p206
tp207
a(V2014-07-09T20:37:38Z
p208
VPushEvent
p209
tp210
a(V2014-07-09T20:29:53Z
p211
VGollumEvent
p212
tp213
a(V2014-07-09T20:29:44Z
p214
VGollumEvent
p215
tp216
a(V2014-07-09T20:27:51Z
p217
VIssuesEvent
p218
tp219
a(V2014-07-09T20:22:15Z
p220
VGollumEvent
p221
tp222
a(V2014-07-09T20:22:02Z
p223
VGollumEvent
p224
tp225
a(V2014-07-09T18:22:37Z
p226
VGollumEvent
p227
tp228
a(V2014-07-09T18:21:07Z
p229
VGollumEvent
p230
tp231
a(V2014-07-09T18:20:56Z
p232
VGollumEvent
p233
tp234
a(V2014-07-09T18:09:37Z
p235
VGollumEvent
p236
tp237
a(V2014-07-09T18:08:29Z
p238
VGollumEvent
p239
tp240
a(V2014-07-09T18:08:03Z
p241
VGollumEvent
p242
tp243
a(V2014-07-09T18:05:23Z
p244
VGollumEvent
p245
tp246
a(V2014-07-09T17:54:00Z
p247
VGollumEvent
p248
tp249
a(V2014-07-09T17:53:14Z
p250
VGollumEvent
p251
tp252
a(V2014-07-09T17:32:53Z
p253
VGollumEvent
p254
tp255
a(V2014-07-09T17:22:24Z
p256
VGollumEvent
p257
tp258
a(V2014-07-09T17:22:09Z
p259
VGollumEvent
p260
tp261
a(V2014-07-09T17:21:37Z
p262
VGollumEvent
p263
tp264
a(V2014-07-09T17:19:35Z
p265
VGollumEvent
p266
tp267
a(V2014-07-09T17:10:23Z
p268
VGollumEvent
p269
tp270
a(V2014-07-09T17:09:55Z
p271
VGollumEvent
p272
tp273
a(V2014-07-09T17:09:50Z
p274
VGollumEvent
p275
tp276
a(V2014-07-09T17:09:35Z
p277
VGollumEvent
p278
tp279
a(V2014-07-09T17:09:24Z
p280
VGollumEvent
p281
tp282
a(V2014-07-09T17:09:00Z
p283
VGollumEvent
p284
tp285
a(V2014-07-09T17:08:23Z
p286
VPushEvent
p287
tp288
a(V2014-07-09T16:58:55Z
p289
VGollumEvent
p290
tp291
a(V2014-07-09T16:57:56Z
p292
VGollumEvent
p293
tp294
a(V2014-07-09T16:56:47Z
p295
VGollumEvent
p296
tp297
a(V2014-07-09T16:56:30Z
p298
VGollumEvent
p299
tp300
a(V2014-07-09T16:56:15Z
p301
VGollumEvent
p302
tp303
a(V2014-07-09T16:50:40Z
p304
VGollumEvent
p305
tp306
a(V2014-07-09T16:50:05Z
p307
VGollumEvent
p308
tp309
a(V2014-07-09T16:49:00Z
p310
VPushEvent
p311
tp312
a(V2014-07-09T16:48:09Z
p313
VGollumEvent
p314
tp315
a(V2014-07-09T16:44:49Z
p316
VGollumEvent
p317
tp318
a(V2014-07-09T16:44:14Z
p319
VGollumEvent
p320
tp321
a(V2014-07-09T16:43:55Z
p322
VPushEvent
p323
tp324
a(V2014-07-09T16:41:42Z
p325
VGollumEvent
p326
tp327
a(V2014-07-09T16:41:27Z
p328
VGollumEvent
p329
tp330
a(V2014-07-09T16:40:50Z
p331
VGollumEvent
p332
tp333
a(V2014-07-09T16:40:50Z
p334
VPushEvent
p335
tp336
a(V2014-07-09T16:37:36Z
p337
VPushEvent
p338
tp339
a(V2014-07-09T16:30:40Z
p340
VGollumEvent
p341
tp342
a(V2014-07-09T16:30:28Z
p343
VGollumEvent
p344
tp345
a(V2014-07-09T16:28:11Z
p346
VGollumEvent
p347
tp348
a(V2014-07-09T16:26:33Z
p349
VGollumEvent
p350
tp351
a(V2014-07-09T16:24:56Z
p352
VGollumEvent
p353
tp354
a(V2014-07-09T16:24:06Z
p355
VGollumEvent
p356
tp357
a(V2014-07-09T16:22:29Z
p358
VGollumEvent
p359
tp360
a(V2014-07-09T16:10:48Z
p361
VGollumEvent
p362
tp363
a(V2014-07-09T16:06:36Z
p364
VGollumEvent
p365
tp366
a(V2014-07-09T16:04:02Z
p367
VGollumEvent
p368
tp369
a(V2014-07-09T16:03:49Z
p370
VGollumEvent
p371
tp372
a(V2014-07-09T16:00:20Z
p373
VPushEvent
p374
tp375
a(V2014-07-09T05:46:19Z
p376
VPushEvent
p377
tp378
a(V2014-07-09T05:45:28Z
p379
VPushEvent
p380
tp381
a(V2014-07-09T05:44:27Z
p382
VPushEvent
p383
tp384
a(V2014-07-09T05:41:55Z
p385
VCreateEvent
p386
tp387
a(V2014-07-09T05:41:47Z
p388
VCreateEvent
p389
tp390
a(V2014-07-09T05:02:14Z
p391
VPushEvent
p392
tp393
a(V2014-07-09T05:00:57Z
p394
VPushEvent
p395
tp396
a(V2014-07-09T01:00:22Z
p397
VPushEvent
p398
tp399
a(V2014-07-09T00:09:59Z
p400
VPushEvent
p401
tp402
a(V2014-07-08T23:37:15Z
p403
VPushEvent
p404
tp405
a(V2014-07-08T23:27:30Z
p406
VPushEvent
p407
tp408
a(V2014-07-08T23:22:01Z
p409
VPushEvent
p410
tp411
a(V2014-07-08T23:02:54Z
p412
VPushEvent
p413
tp414
a(V2014-07-08T22:37:55Z
p415
VCreateEvent
p416
tp417
a(V2014-07-08T22:37:54Z
p418
VPushEvent
p419
tp420
a(V2014-07-08T21:43:01Z
p421
VDeleteEvent
p422
tp423
a(V2014-07-08T21:42:59Z
p424
VCreateEvent
p425
tp426
a(V2014-07-08T21:42:56Z
p427
VPushEvent
p428
tp429
a(V2014-07-08T20:55:27Z
p430
VPushEvent
p431
tp432
a(V2014-07-08T20:43:20Z
p433
VPushEvent
p434
tp435
a(V2014-07-08T20:25:35Z
p436
VPushEvent
p437
tp438
a(V2014-07-08T20:23:26Z
p439
VDeleteEvent
p440
tp441
a(V2014-07-08T20:23:25Z
p442
VPushEvent
p443
tp444
a(V2014-07-08T20:22:55Z
p445
VPushEvent
p446
tp447
a(V2014-07-08T20:09:55Z
p448
VPushEvent
p449
tp450
a(V2014-07-08T18:30:15Z
p451
VCreateEvent
p452
tp453
a(V2014-07-08T16:58:11Z
p454
VPushEvent
p455
tp456
a(V2014-07-08T16:28:43Z
p457
VPushEvent
p458
tp459
a(V2014-07-08T05:22:59Z
p460
VPushEvent
p461
tp462
a(V2014-07-08T05:18:06Z
p463
VPushEvent
p464
tp465
a(V2014-07-08T05:00:26Z
p466
VPushEvent
p467
tp468
a(V2014-07-08T04:52:37Z
p469
VPushEvent
p470
tp471
a(V2014-07-08T04:08:09Z
p472
VPushEvent
p473
tp474
a(V2014-07-08T01:09:39Z
p475
VPushEvent
p476
tp477
a(V2014-07-08T00:15:42Z
p478
VPushEvent
p479
tp480
a(V2014-07-07T22:56:26Z
p481
VPushEvent
p482
tp483
a(V2014-07-07T22:42:40Z
p484
VPushEvent
p485
tp486
a(V2014-07-07T22:26:52Z
p487
VPushEvent
p488
tp489
a(V2014-07-07T21:54:50Z
p490
VGollumEvent
p491
tp492
a(V2014-07-07T21:53:07Z
p493
VIssueCommentEvent
p494
tp495
a(V2014-07-07T19:56:38Z
p496
VPushEvent
p497
tp498
a(V2014-07-07T19:55:06Z
p499
VPushEvent
p500
tp501
a(V2014-07-07T19:54:16Z
p502
VPushEvent
p503
tp504
a(V2014-07-07T19:41:04Z
p505
VPushEvent
p506
tp507
a(V2014-07-07T19:32:03Z
p508
VPushEvent
p509
tp510
a(V2014-07-07T19:11:44Z
p511
VCreateEvent
p512
tp513
a(V2014-07-07T16:36:31Z
p514
VIssueCommentEvent
p515
tp516
a(V2014-07-07T16:27:04Z
p517
VIssuesEvent
p518
tp519
a(V2014-07-07T16:27:04Z
p520
VIssueCommentEvent
p521
tp522
a(V2014-07-07T16:26:20Z
p523
VPushEvent
p524
tp525
a(V2014-07-07T16:26:20Z
p526
VCreateEvent
p527
tp528
a(V2014-07-07T16:06:49Z
p529
VIssuesEvent
p530
tp531
a(V2014-07-07T04:39:15Z
p532
VPushEvent
p533
tp534
a(V2014-07-07T04:38:08Z
p535
VPullRequestEvent
p536
tp537
a(V2014-07-07T04:38:03Z
p538
VCreateEvent
p539
tp540
a(V2014-07-07T04:23:27Z
p541
VIssuesEvent
p542
tp543
a(V2014-07-06T21:30:52Z
p544
VPushEvent
p545
tp546
a(V2014-07-05T22:00:25Z
p547
VPushEvent
p548
tp549
a(V2014-07-05T22:00:12Z
p550
VCreateEvent
p551
tp552
a(V2014-07-05T21:57:15Z
p553
VPushEvent
p554
tp555
a(V2014-07-05T21:38:20Z
p556
VPushEvent
p557
tp558
a(V2014-07-05T21:23:40Z
p559
VCreateEvent
p560
tp561
a(V2014-07-05T21:23:32Z
p562
VPushEvent
p563
tp564
a(V2014-07-05T15:38:58Z
p565
VGollumEvent
p566
tp567
a(V2014-07-05T15:36:04Z
p568
VGollumEvent
p569
tp570
a(V2014-07-05T15:31:35Z
p571
VGollumEvent
p572
tp573
a(V2014-07-05T15:27:34Z
p574
VGollumEvent
p575
tp576
a(V2014-07-05T15:25:29Z
p577
VGollumEvent
p578
tp579
a(V2014-07-05T15:14:46Z
p580
VGollumEvent
p581
tp582
a(V2014-07-04T14:46:46Z
p583
VPushEvent
p584
tp585
a(V2014-07-04T14:16:30Z
p586
VIssueCommentEvent
p587
tp588
a(V2014-07-03T16:30:20Z
p589
VIssueCommentEvent
p590
tp591
a(V2014-07-02T21:45:32Z
p592
VIssueCommentEvent
p593
tp594
a(V2014-07-02T21:39:16Z
p595
VIssueCommentEvent
p596
tp597
a(V2014-07-02T13:55:00Z
p598
VCreateEvent
p599
tp600
a(V2014-07-02T13:53:27Z
p601
VPushEvent
p602
tp603
a(V2014-07-01T23:23:14Z
p604
VIssueCommentEvent
p605
tp606
a(V2014-07-01T16:38:06Z
p607
VPushEvent
p608
tp609
a(V2014-06-30T22:13:13Z
p610
VPushEvent
p611
tp612
a(V2014-06-30T21:17:19Z
p613
VPushEvent
p614
tp615
a(V2014-06-30T20:52:16Z
p616
VPushEvent
p617
tp618
a(V2014-06-30T17:38:35Z
p619
VPushEvent
p620
tp621
a(V2014-06-30T17:36:58Z
p622
VGollumEvent
p623
tp624
a(V2014-06-30T17:35:14Z
p625
VGollumEvent
p626
tp627
a(V2014-06-30T17:32:36Z
p628
VGollumEvent
p629
tp630
a(V2014-06-30T17:25:16Z
p631
VReleaseEvent
p632
tp633
a(V2014-06-30T17:18:57Z
p634
VDeleteEvent
p635
tp636
a(V2014-06-30T17:18:06Z
p637
VCreateEvent
p638
tp639
a(V2014-06-30T17:18:06Z
p640
VCreateEvent
p641
tp642
a(V2014-06-30T17:17:59Z
p643
VPushEvent
p644
tp645
a(V2014-06-30T17:17:59Z
p646
VPullRequestEvent
p647
tp648
a(V2014-06-30T17:17:59Z
p649
VPullRequestEvent
p650
tp651
a(V2014-06-30T17:17:59Z
p652
VIssuesEvent
p653
tp654
a(V2014-06-30T17:17:59Z
p655
VIssuesEvent
p656
tp657
a(V2014-06-30T17:17:59Z
p658
VPullRequestEvent
p659
tp660
a(V2014-06-30T17:17:53Z
p661
VPullRequestEvent
p662
tp663
a(V2014-06-30T17:17:52Z
p664
VPullRequestEvent
p665
tp666
a(V2014-06-30T17:11:42Z
p667
VIssueCommentEvent
p668
tp669
a(V2014-06-30T17:04:04Z
p670
VIssueCommentEvent
p671
tp672
a(V2014-06-30T17:03:41Z
p673
VPushEvent
p674
tp675
a(V2014-06-30T16:43:43Z
p676
VIssueCommentEvent
p677
tp678
a(V2014-06-30T13:33:14Z
p679
VCreateEvent
p680
tp681
a(V2014-06-30T13:24:53Z
p682
VIssueCommentEvent
p683
tp684
a(V2014-06-28T22:11:49Z
p685
VIssueCommentEvent
p686
tp687
a(V2014-06-28T03:10:11Z
p688
VIssueCommentEvent
p689
tp690
a(V2014-06-28T03:10:08Z
p691
VPushEvent
p692
tp693
a(V2014-06-28T03:10:07Z
p694
VPullRequestEvent
p695
tp696
a(V2014-06-28T03:09:56Z
p697
VPushEvent
p698
tp699
a(V2014-06-28T03:09:56Z
p700
VPullRequestEvent
p701
tp702
a(V2014-06-28T03:09:11Z
p703
VIssueCommentEvent
p704
tp705
a(V2014-06-27T22:46:53Z
p706
VPushEvent
p707
tp708
a(V2014-06-26T15:52:34Z
p709
VPushEvent
p710
tp711
a(V2014-06-26T14:59:12Z
p712
VPushEvent
p713
tp714
a(V2014-06-25T16:50:16Z
p715
VIssuesEvent
p716
tp717
a(V2014-06-25T04:35:43Z
p718
VPushEvent
p719
tp720
a(V2014-06-24T23:46:57Z
p721
VPushEvent
p722
tp723
a(V2014-06-24T23:45:58Z
p724
VIssueCommentEvent
p725
tp726
a(V2014-06-24T23:45:09Z
p727
VPullRequestEvent
p728
tp729
a(V2014-06-24T23:45:03Z
p730
VCreateEvent
p731
tp732
a(V2014-06-23T21:56:07Z
p733
VIssuesEvent
p734
tp735
a(V2014-06-23T21:56:07Z
p736
VIssueCommentEvent
p737
tp738
a(V2014-06-22T21:28:52Z
p739
VPushEvent
p740
tp741
a(V2014-06-22T21:28:31Z
p742
VPushEvent
p743
tp744
a(V2014-06-22T21:24:09Z
p745
VPushEvent
p746
tp747
a(V2014-06-22T20:58:01Z
p748
VPushEvent
p749
tp750
a(V2014-06-22T20:56:34Z
p751
VPushEvent
p752
tp753
a(V2014-06-22T17:02:56Z
p754
VPushEvent
p755
tp756
a(V2014-06-22T00:39:15Z
p757
VPushEvent
p758
tp759
a(V2014-06-21T22:15:38Z
p760
VPushEvent
p761
tp762
a(V2014-06-21T22:12:12Z
p763
VPushEvent
p764
tp765
a(V2014-06-21T18:08:36Z
p766
VPushEvent
p767
tp768
a(V2014-06-21T18:05:14Z
p769
VPushEvent
p770
tp771
a(V2014-06-21T06:28:54Z
p772
VDeleteEvent
p773
tp774
a(V2014-06-21T06:28:47Z
p775
VPushEvent
p776
tp777
a(V2014-06-21T06:27:31Z
p778
VPushEvent
p779
tp780
a(V2014-06-21T06:06:43Z
p781
VPushEvent
p782
tp783
a(V2014-06-21T05:34:48Z
p784
VPushEvent
p785
tp786
a(V2014-06-21T05:32:16Z
p787
VPushEvent
p788
tp789
a(V2014-06-21T04:01:00Z
p790
VIssueCommentEvent
p791
tp792
a(V2014-06-21T03:59:00Z
p793
VPullRequestReviewCommentEvent
p794
tp795
a(V2014-06-21T03:57:25Z
p796
VIssueCommentEvent
p797
tp798
a(V2014-06-21T03:54:55Z
p799
VPullRequestReviewCommentEvent
p800
tp801
a(V2014-06-21T00:11:08Z
p802
VPushEvent
p803
tp804
a(V2014-06-20T23:07:28Z
p805
VPushEvent
p806
tp807
a(V2014-06-20T21:46:07Z
p808
VPushEvent
p809
tp810
a(V2014-06-20T21:44:41Z
p811
VPushEvent
p812
tp813
a(V2014-06-20T19:43:52Z
p814
VPushEvent
p815
tp816
a(V2014-06-20T19:22:24Z
p817
VPushEvent
p818
tp819
a(V2014-06-20T17:29:09Z
p820
VPushEvent
p821
tp822
a(V2014-06-20T05:33:58Z
p823
VPushEvent
p824
tp825
a(V2014-06-20T05:00:38Z
p826
VPushEvent
p827
tp828
a(V2014-06-19T19:03:57Z
p829
VCreateEvent
p830
tp831
a(V2014-06-19T16:58:30Z
p832
VPushEvent
p833
tp834
a(V2014-06-19T05:20:46Z
p835
VPushEvent
p836
tp837
a(V2014-06-19T00:18:35Z
p838
VIssueCommentEvent
p839
tp840
a(V2014-06-18T17:24:15Z
p841
VPushEvent
p842
tp843
a(V2014-06-18T16:53:48Z
p844
VPushEvent
p845
tp846
a(V2014-06-18T16:46:40Z
p847
VPushEvent
p848
tp849
a(V2014-06-18T15:10:42Z
p850
VIssuesEvent
p851
tp852
a(V2014-06-18T15:10:42Z
p853
VIssueCommentEvent
p854
tp855
a(V2014-06-18T05:14:52Z
p856
VPushEvent
p857
tp858
a(V2014-06-18T05:06:37Z
p859
VPushEvent
p860
tp861
a(V2014-06-18T03:32:48Z
p862
VPushEvent
p863
tp864
a(V2014-06-17T22:44:19Z
p865
VPushEvent
p866
tp867
a(V2014-06-17T22:23:59Z
p868
VPushEvent
p869
tp870
a(V2014-06-17T16:50:34Z
p871
VPushEvent
p872
tp873
a(V2014-06-17T16:01:25Z
p874
VPushEvent
p875
tp876
a(V2014-06-16T23:32:55Z
p877
VPushEvent
p878
tp879
a(V2014-06-16T18:34:59Z
p880
VPushEvent
p881
tp882
a(V2014-06-16T18:25:58Z
p883
VPushEvent
p884
tp885
a(V2014-06-16T18:06:49Z
p886
VPushEvent
p887
tp888
a(V2014-06-16T17:58:26Z
p889
VPushEvent
p890
tp891
a(V2014-06-16T17:55:18Z
p892
VPushEvent
p893
tp894
a(V2014-06-16T17:42:16Z
p895
VPushEvent
p896
tp897
a(V2014-06-16T17:11:49Z
p898
VPushEvent
p899
tp900
a.